; Function Attrs: nounwind uwtable
define internal ptr @s_get_format(ptr noundef readonly captures(none) %0, ptr readnone captures(none) %1) #0 {
  %3 = getelementptr inbounds nuw i8, ptr %0, i64 40
  %4 = load ptr, ptr %3, align 8, !tbaa !71
  %5 = getelementptr inbounds nuw i8, ptr %4, i64 32
  %6 = getelementptr i8, ptr %4, i64 16
  %.val = load i64, ptr %6, align 8, !tbaa !32
  %7 = tail call ptr @PyUnicode_FromStringAndSize(ptr noundef nonnull %5, i64 noundef %.val) #7
  ret ptr %7
}